target datalayout = "e-m:e-p270:32:32-p271:32:32-p272:64:64-i64:64-i128:128-f80:128-n8:16:32:64-S128"
target triple = "x86_64-pc-linux-gnu"

%union.ImGL3WProcs = type { [59 x ptr] }
%struct.anon.0 = type { ptr, ptr, ptr, ptr, ptr, ptr, ptr, ptr, ptr, ptr, ptr, ptr, ptr, ptr, ptr, ptr, ptr, ptr, ptr, ptr, ptr, ptr, ptr, ptr, ptr, ptr, ptr, ptr, ptr, ptr, ptr, ptr, ptr, ptr, ptr, ptr, ptr, ptr, ptr, ptr, ptr, ptr, ptr, ptr, ptr, ptr, ptr, ptr, ptr, ptr, ptr, ptr, ptr, ptr, ptr, ptr, ptr, ptr, ptr }
%struct.ImGuiIO = type { i32, i32, %struct.ImVec2, float, float, ptr, ptr, ptr, ptr, float, i8, ptr, %struct.ImVec2, i8, i8, i8, i8, i8, i8, i8, i8, i8, i8, float, float, float, float, float, float, i8, i8, i8, i8, i8, i8, i8, i8, i8, i8, ptr, ptr, ptr, ptr, ptr, i8, i8, i8, i8, i8, i8, i8, float, i32, i32, i32, i32, %struct.ImVec2, ptr, %struct.ImVec2, [5 x i8], float, float, i32, i8, i8, i8, i8, i32, [154 x %struct.ImGuiKeyData], i8, %struct.ImVec2, [5 x %struct.ImVec2], [5 x double], [5 x i8], [5 x i8], [5 x i16], [5 x i16], [5 x i8], [5 x i8], [5 x i8], i8, i8, [5 x float], [5 x float], [5 x float], float, i8, i8, i8, i8, i16, %struct.ImVector }
%struct.ImGuiKeyData = type { i8, float, float, float }
%struct.ImVec2 = type { float, float }
%struct.ImVector = type { i32, i32, ptr }
%struct.ImGui_ImplOpenGL3_Data = type <{ i32, [32 x i8], i8, i8, i8, i8, i32, i32, i32, i32, i32, i32, i32, i32, i32, i32, i64, i64, i8, i8, i8, [5 x i8] }>
%struct.ImVec4 = type { float, float, float, float }
%struct.ImFontAtlas = type <{ i32, [4 x i8], ptr, i32, i32, i8, [7 x i8], ptr, i8, i8, [6 x i8], ptr, ptr, i32, i32, %struct.ImVec2, %struct.ImVec2, %struct.ImVector.8, %struct.ImVector.9, %struct.ImVector.10, [64 x %struct.ImVec4], ptr, i32, i32, i32, [4 x i8] }>
%struct.ImVector.8 = type { i32, i32, ptr }
%struct.ImVector.9 = type { i32, i32, ptr }
%struct.ImVector.10 = type { i32, i32, ptr }

@imgl3wProcs = dso_local global %union.ImGL3WProcs zeroinitializer, align 8

; Function Attrs: mustprogress nounwind uwtable
define linkonce_odr dso_local void @_ZN11ImFontAtlas8SetTexIDEPv(ptr noundef nonnull align 8 dereferenceable(1180) %0, ptr noundef %1) #3 comdat align 2 {
  %3 = alloca ptr, align 8
  %4 = alloca ptr, align 8
  store ptr %0, ptr %3, align 8, !tbaa !125
  store ptr %1, ptr %4, align 8, !tbaa !8
  %5 = load ptr, ptr %3, align 8
  %6 = load ptr, ptr %4, align 8, !tbaa !8
  %7 = getelementptr inbounds nuw %struct.ImFontAtlas, ptr %5, i32 0, i32 2
  store ptr %6, ptr %7, align 8, !tbaa !126
  ret void
}

; Function Attrs: mustprogress uwtable
define dso_local void @_Z37ImGui_ImplOpenGL3_DestroyFontsTexturev() #0 {
  %1 = alloca ptr, align 8
  %2 = alloca ptr, align 8
  call void @llvm.lifetime.start.p0(i64 8, ptr %1) #11
  %3 = call noundef nonnull align 8 dereferenceable(2944) ptr @_ZN5ImGui5GetIOEv()
  store ptr %3, ptr %1, align 8, !tbaa !20
  call void @llvm.lifetime.start.p0(i64 8, ptr %2) #11
  %4 = call noundef ptr @_ZL32ImGui_ImplOpenGL3_GetBackendDatav()
  store ptr %4, ptr %2, align 8, !tbaa !24
  %5 = load ptr, ptr %2, align 8, !tbaa !24
  %6 = getelementptr inbounds nuw %struct.ImGui_ImplOpenGL3_Data, ptr %5, i32 0, i32 7
  %7 = load i32, ptr %6, align 4, !tbaa !55
  %8 = icmp ne i32 %7, 0
  br i1 %8, label %9, label %18

9:                                                ; preds = %0
  %10 = load ptr, ptr getelementptr inbounds nuw (%struct.anon.0, ptr @imgl3wProcs, i32 0, i32 19), align 8, !tbaa !14
  %11 = load ptr, ptr %2, align 8, !tbaa !24
  %12 = getelementptr inbounds nuw %struct.ImGui_ImplOpenGL3_Data, ptr %11, i32 0, i32 7
  call void %10(i32 noundef 1, ptr noundef %12)
  %13 = load ptr, ptr %1, align 8, !tbaa !20
  %14 = getelementptr inbounds nuw %struct.ImGuiIO, ptr %13, i32 0, i32 8
  %15 = load ptr, ptr %14, align 8, !tbaa !61
  call void @_ZN11ImFontAtlas8SetTexIDEPv(ptr noundef nonnull align 8 dereferenceable(1180) %15, ptr noundef null)
  %16 = load ptr, ptr %2, align 8, !tbaa !24
  %17 = getelementptr inbounds nuw %struct.ImGui_ImplOpenGL3_Data, ptr %16, i32 0, i32 7
  store i32 0, ptr %17, align 4, !tbaa !55
  br label %18

18:                                               ; preds = %9, %0
  call void @llvm.lifetime.end.p0(i64 8, ptr %2) #11
  call void @llvm.lifetime.end.p0(i64 8, ptr %1) #11
  ret void
}

; Function Attrs: mustprogress uwtable
define internal noundef ptr @_ZL32ImGui_ImplOpenGL3_GetBackendDatav() #0 {
  %1 = call noundef ptr @_ZN5ImGui17GetCurrentContextEv()
  %2 = icmp ne ptr %1, null
  br i1 %2, label %3, label %7

3:                                                ; preds = %0
  %4 = call noundef nonnull align 8 dereferenceable(2944) ptr @_ZN5ImGui5GetIOEv()
  %5 = getelementptr inbounds nuw %struct.ImGuiIO, ptr %4, i32 0, i32 42
  %6 = load ptr, ptr %5, align 8, !tbaa !26
  br label %8

7:                                                ; preds = %0
  br label %8

8:                                                ; preds = %7, %3
  %9 = phi ptr [ %6, %3 ], [ null, %7 ]
  ret ptr %9
}

; Function Attrs: mustprogress uwtable
define dso_local void @_Z38ImGui_ImplOpenGL3_DestroyDeviceObjectsv() #0 {
  %1 = alloca ptr, align 8
  call void @llvm.lifetime.start.p0(i64 8, ptr %1) #11
  %2 = call noundef ptr @_ZL32ImGui_ImplOpenGL3_GetBackendDatav()
  store ptr %2, ptr %1, align 8, !tbaa !24
  %3 = load ptr, ptr %1, align 8, !tbaa !24
  %4 = getelementptr inbounds nuw %struct.ImGui_ImplOpenGL3_Data, ptr %3, i32 0, i32 14
  %5 = load i32, ptr %4, align 8, !tbaa !52
  %6 = icmp ne i32 %5, 0
  br i1 %6, label %7, label %13

7:                                                ; preds = %0
  %8 = load ptr, ptr getelementptr inbounds nuw (%struct.anon.0, ptr @imgl3wProcs, i32 0, i32 16), align 8, !tbaa !14
  %9 = load ptr, ptr %1, align 8, !tbaa !24
  %10 = getelementptr inbounds nuw %struct.ImGui_ImplOpenGL3_Data, ptr %9, i32 0, i32 14
  call void %8(i32 noundef 1, ptr noundef %10)
  %11 = load ptr, ptr %1, align 8, !tbaa !24
  %12 = getelementptr inbounds nuw %struct.ImGui_ImplOpenGL3_Data, ptr %11, i32 0, i32 14
  store i32 0, ptr %12, align 8, !tbaa !52
  br label %13

13:                                               ; preds = %7, %0
  %14 = load ptr, ptr %1, align 8, !tbaa !24
  %15 = getelementptr inbounds nuw %struct.ImGui_ImplOpenGL3_Data, ptr %14, i32 0, i32 15
  %16 = load i32, ptr %15, align 4, !tbaa !53
  %17 = icmp ne i32 %16, 0
  br i1 %17, label %18, label %24

18:                                               ; preds = %13
  %19 = load ptr, ptr getelementptr inbounds nuw (%struct.anon.0, ptr @imgl3wProcs, i32 0, i32 16), align 8, !tbaa !14
  %20 = load ptr, ptr %1, align 8, !tbaa !24
  %21 = getelementptr inbounds nuw %struct.ImGui_ImplOpenGL3_Data, ptr %20, i32 0, i32 15
  call void %19(i32 noundef 1, ptr noundef %21)
  %22 = load ptr, ptr %1, align 8, !tbaa !24
  %23 = getelementptr inbounds nuw %struct.ImGui_ImplOpenGL3_Data, ptr %22, i32 0, i32 15
  store i32 0, ptr %23, align 4, !tbaa !53
  br label %24

24:                                               ; preds = %18, %13
  %25 = load ptr, ptr %1, align 8, !tbaa !24
  %26 = getelementptr inbounds nuw %struct.ImGui_ImplOpenGL3_Data, ptr %25, i32 0, i32 8
  %27 = load i32, ptr %26, align 8, !tbaa !54
  %28 = icmp ne i32 %27, 0
  br i1 %28, label %29, label %36

29:                                               ; preds = %24
  %30 = load ptr, ptr getelementptr inbounds nuw (%struct.anon.0, ptr @imgl3wProcs, i32 0, i32 17), align 8, !tbaa !14
  %31 = load ptr, ptr %1, align 8, !tbaa !24
  %32 = getelementptr inbounds nuw %struct.ImGui_ImplOpenGL3_Data, ptr %31, i32 0, i32 8
  %33 = load i32, ptr %32, align 8, !tbaa !54
  call void %30(i32 noundef %33)
  %34 = load ptr, ptr %1, align 8, !tbaa !24
  %35 = getelementptr inbounds nuw %struct.ImGui_ImplOpenGL3_Data, ptr %34, i32 0, i32 8
  store i32 0, ptr %35, align 8, !tbaa !54
  br label %36

36:                                               ; preds = %29, %24
  call void @_Z37ImGui_ImplOpenGL3_DestroyFontsTexturev()
  call void @llvm.lifetime.end.p0(i64 8, ptr %1) #11
  ret void
}