; Function Attrs: mustprogress uwtable
define dso_local void @_Z38ImGui_ImplOpenGL3_DestroyDeviceObjectsv() local_unnamed_addr #0 {
_ZL32ImGui_ImplOpenGL3_GetBackendDatav.exit:
  %0 = tail call noundef ptr @_ZN5ImGui17GetCurrentContextEv()
  %.not.i = icmp ne ptr %0, null
  tail call void @llvm.assume(i1 %.not.i)
  %1 = tail call noundef nonnull align 8 dereferenceable(2944) ptr @_ZN5ImGui5GetIOEv()
  %2 = getelementptr inbounds nuw i8, ptr %1, i64 152
  %3 = load ptr, ptr %2, align 8, !tbaa !19
  %4 = getelementptr inbounds nuw i8, ptr %3, i64 72
  %5 = load i32, ptr %4, align 8, !tbaa !47
  %.not = icmp eq i32 %5, 0
  br i1 %.not, label %8, label %6

6:                                                ; preds = %_ZL32ImGui_ImplOpenGL3_GetBackendDatav.exit
  %7 = load ptr, ptr getelementptr inbounds nuw (i8, ptr @imgl3wProcs, i64 128), align 8, !tbaa !10
  tail call void %7(i32 noundef 1, ptr noundef nonnull %4)
  store i32 0, ptr %4, align 8, !tbaa !47
  br label %8

8:                                                ; preds = %6, %_ZL32ImGui_ImplOpenGL3_GetBackendDatav.exit
  %9 = getelementptr inbounds nuw i8, ptr %3, i64 76
  %10 = load i32, ptr %9, align 4, !tbaa !48
  %.not9 = icmp eq i32 %10, 0
  br i1 %.not9, label %13, label %11

11:                                               ; preds = %8
  %12 = load ptr, ptr getelementptr inbounds nuw (i8, ptr @imgl3wProcs, i64 128), align 8, !tbaa !10
  tail call void %12(i32 noundef 1, ptr noundef nonnull %9)
  store i32 0, ptr %9, align 4, !tbaa !48
  br label %13

13:                                               ; preds = %11, %8
  %14 = getelementptr inbounds nuw i8, ptr %3, i64 48
  %15 = load i32, ptr %14, align 8, !tbaa !49
  %.not10 = icmp eq i32 %15, 0
  br i1 %.not10, label %18, label %16

16:                                               ; preds = %13
  %17 = load ptr, ptr getelementptr inbounds nuw (i8, ptr @imgl3wProcs, i64 136), align 8, !tbaa !10
  tail call void %17(i32 noundef %15)
  store i32 0, ptr %14, align 8, !tbaa !49
  br label %18

18:                                               ; preds = %16, %13
  %19 = tail call noundef nonnull align 8 dereferenceable(2944) ptr @_ZN5ImGui5GetIOEv()
  %20 = tail call noundef ptr @_ZN5ImGui17GetCurrentContextEv()
  %.not.i.i = icmp ne ptr %20, null
  tail call void @llvm.assume(i1 %.not.i.i)
  %21 = tail call noundef nonnull align 8 dereferenceable(2944) ptr @_ZN5ImGui5GetIOEv()
  %22 = getelementptr inbounds nuw i8, ptr %21, i64 152
  %23 = load ptr, ptr %22, align 8, !tbaa !19
  %24 = getelementptr inbounds nuw i8, ptr %23, i64 44
  %25 = load i32, ptr %24, align 4, !tbaa !50
  %.not.i11 = icmp eq i32 %25, 0
  br i1 %.not.i11, label %_Z37ImGui_ImplOpenGL3_DestroyFontsTexturev.exit, label %26

26:                                               ; preds = %18
  %27 = load ptr, ptr getelementptr inbounds nuw (i8, ptr @imgl3wProcs, i64 152), align 8, !tbaa !10
  tail call void %27(i32 noundef 1, ptr noundef nonnull %24)
  %28 = getelementptr inbounds nuw i8, ptr %19, i64 48
  %29 = load ptr, ptr %28, align 8, !tbaa !51
  %30 = getelementptr inbounds nuw i8, ptr %29, i64 8
  store ptr null, ptr %30, align 8, !tbaa !52
  store i32 0, ptr %24, align 4, !tbaa !50
  br label %_Z37ImGui_ImplOpenGL3_DestroyFontsTexturev.exit

_Z37ImGui_ImplOpenGL3_DestroyFontsTexturev.exit:  ; preds = %18, %26
  ret void
}